target datalayout = "e-m:e-p270:32:32-p271:32:32-p272:64:64-i64:64-i128:128-f80:128-n8:16:32:64-S128"
target triple = "x86_64-pc-linux-gnu"

%struct.pkcs7_st = type { ptr, i64, i32, i32, ptr, %union.anon.1, %struct.PKCS7_CTX_st }
%union.anon.1 = type { ptr }
%struct.PKCS7_CTX_st = type { ptr, ptr }
%struct.PKCS12_st = type { ptr, ptr, ptr }

; Function Attrs: nounwind uwtable
define i32 @PKCS12_pack_authsafes(ptr noundef %0, ptr noundef %1) #0 {
  %3 = alloca i32, align 4
  %4 = alloca ptr, align 8
  %5 = alloca ptr, align 8
  store ptr %0, ptr %4, align 8, !tbaa !48
  store ptr %1, ptr %5, align 8, !tbaa !50
  %6 = load ptr, ptr %5, align 8, !tbaa !50
  %7 = call ptr @PKCS12_AUTHSAFES_it()
  %8 = load ptr, ptr %4, align 8, !tbaa !48
  %9 = getelementptr inbounds nuw %struct.PKCS12_st, ptr %8, i32 0, i32 2
  %10 = load ptr, ptr %9, align 8, !tbaa !52
  %11 = getelementptr inbounds nuw %struct.pkcs7_st, ptr %10, i32 0, i32 5
  %12 = call ptr @ASN1_item_pack(ptr noundef %6, ptr noundef %7, ptr noundef %11)
  %13 = icmp ne ptr %12, null
  br i1 %13, label %14, label %15

14:                                               ; preds = %2
  store i32 1, ptr %3, align 4
  br label %16

15:                                               ; preds = %2
  store i32 0, ptr %3, align 4
  br label %16

16:                                               ; preds = %15, %14
  %17 = load i32, ptr %3, align 4
  ret i32 %17
}