; Function Attrs: nounwind uwtable
define range(i32 0, 2) i32 @PKCS12_pack_authsafes(ptr noundef readonly captures(none) %0, ptr noundef %1) local_unnamed_addr #0 {
  %3 = tail call ptr @PKCS12_AUTHSAFES_it() #2
  %4 = getelementptr inbounds nuw i8, ptr %0, i64 16
  %5 = load ptr, ptr %4, align 8, !tbaa !32
  %6 = getelementptr inbounds nuw i8, ptr %5, i64 32
  %7 = tail call ptr @ASN1_item_pack(ptr noundef %1, ptr noundef %3, ptr noundef nonnull %6) #2
  %.not = icmp ne ptr %7, null
  %. = zext i1 %.not to i32
  ret i32 %.
}